; Function Attrs: mustprogress uwtable
define void @_ZN5folly6detail20thread_is_dying_markEv() local_unnamed_addr #0 personality ptr @__gxx_personality_v0 {
  %1 = load atomic i64, ptr @_ZZN5folly6detail30StaticSingletonManagerWithRtti6globalINS0_12_GLOBAL__N_122thread_is_dying_globalEvNS1_9ArgCreateILb0EEEEERT1_vE3arg acquire, align 8
  %.0.i.i = inttoptr i64 %1 to ptr
  %.not.i = icmp eq i64 %1, 0
  br i1 %.not.i, label %2, label %_ZN5folly6detail30StaticSingletonManagerWithRtti6createINS0_12_GLOBAL__N_122thread_is_dying_globalEJELb0EEERT_RNS1_9ArgCreateIXT1_EEE.exit, !prof !7

2:                                                ; preds = %0
  %3 = tail call noundef ptr @_ZN5folly6detail30StaticSingletonManagerWithRtti7create_ILb0EEEPvRNS1_3ArgE(ptr noundef nonnull align 8 dereferenceable(32) @_ZZN5folly6detail30StaticSingletonManagerWithRtti6globalINS0_12_GLOBAL__N_122thread_is_dying_globalEvNS1_9ArgCreateILb0EEEEERT1_vE3arg)
  br label %_ZN5folly6detail30StaticSingletonManagerWithRtti6createINS0_12_GLOBAL__N_122thread_is_dying_globalEJELb0EEERT_RNS1_9ArgCreateIXT1_EEE.exit

_ZN5folly6detail30StaticSingletonManagerWithRtti6createINS0_12_GLOBAL__N_122thread_is_dying_globalEJELb0EEERT_RNS1_9ArgCreateIXT1_EEE.exit: ; preds = %0, %2
  %4 = phi ptr [ %3, %2 ], [ %.0.i.i, %0 ]
  %5 = load i32, ptr %4, align 4, !tbaa !8
  %6 = tail call ptr @pthread_getspecific(i32 noundef %5) #14
  %.not = icmp eq ptr %6, null
  br i1 %.not, label %7, label %10

7:                                                ; preds = %_ZN5folly6detail30StaticSingletonManagerWithRtti6createINS0_12_GLOBAL__N_122thread_is_dying_globalEJELb0EEERT_RNS1_9ArgCreateIXT1_EEE.exit
  %8 = load i32, ptr %4, align 4, !tbaa !8
  %9 = tail call i32 @pthread_setspecific(i32 noundef %8, ptr noundef nonnull %4) #14
  br label %10

10:                                               ; preds = %7, %_ZN5folly6detail30StaticSingletonManagerWithRtti6createINS0_12_GLOBAL__N_122thread_is_dying_globalEJELb0EEERT_RNS1_9ArgCreateIXT1_EEE.exit
  ret void
}